; Function Attrs: null_pointer_is_valid sspstrong uwtable
define internal fastcc i32 @s7comm_decode_ud_cpu_ar_send(ptr noundef %0, ptr noundef %1, i32 noundef %2) unnamed_addr #0 {
  %4 = alloca i32, align 4
  call void @llvm.lifetime.start.p0(i64 4, ptr nonnull %4) #8
  %5 = load i32, ptr @hf_s7comm_pbc_arsend_len, align 4
  %6 = call ptr @proto_tree_add_item_ret_uint(ptr noundef %1, i32 noundef %5, ptr noundef %0, i32 noundef %2, i32 noundef 2, i32 noundef -2147483648, ptr noundef nonnull %4)
  %7 = add i32 %2, 2
  %8 = load i32, ptr @hf_s7comm_userdata_data, align 4
  %9 = load i32, ptr %4, align 4
  %10 = call ptr @proto_tree_add_item(ptr noundef %1, i32 noundef %8, ptr noundef %0, i32 noundef %7, i32 noundef %9, i32 noundef 0)
  %11 = load i32, ptr %4, align 4
  %12 = add i32 %11, %7
  call void @llvm.lifetime.end.p0(i64 4, ptr nonnull %4) #8
  ret i32 %12
}